; ModuleID = '24/66.c'
source_filename = "24/66.c"
target datalayout = "e-m:e-p270:32:32-p271:32:32-p272:64:64-i64:64-f80:128-n8:16:32:64-S128"
target triple = "x86_64-pc-linux-gnu"

@.str = private unnamed_addr constant [3 x i8] c"%c\00", align 1
@.str.1 = private unnamed_addr constant [2 x i8] c"\0A\00", align 1

; Function Attrs: noinline nounwind uwtable
define dso_local i32 @main() #0 {
  %1 = alloca i32, align 4
  %2 = alloca [300 x i8], align 16
  %3 = alloca i8*, align 8
  %4 = alloca i32, align 4
  %5 = alloca i32, align 4
  %6 = alloca i32, align 4
  %7 = alloca [50 x i32], align 16
  %8 = alloca [50 x i32], align 16
  %9 = alloca i32, align 4
  %10 = alloca i32, align 4
  %11 = alloca i32, align 4
  %12 = alloca i32, align 4
  %13 = alloca i32, align 4
  store i32 0, i32* %1, align 4
  %14 = getelementptr inbounds [300 x i8], [300 x i8]* %2, i64 0, i64 0
  store i8* %14, i8** %3, align 8
  %15 = bitcast [50 x i32]* %7 to i8*
  call void @llvm.memset.p0i8.i64(i8* align 16 %15, i8 0, i64 200, i1 false)
  %16 = bitcast i8* %15 to <{ i32, [49 x i32] }>*
  %17 = getelementptr inbounds <{ i32, [49 x i32] }>, <{ i32, [49 x i32] }>* %16, i32 0, i32 0
  store i32 -1, i32* %17, align 16
  %18 = bitcast [50 x i32]* %8 to i8*
  call void @llvm.memset.p0i8.i64(i8* align 16 %18, i8 0, i64 200, i1 false)
  store i32 0, i32* %9, align 4
  store i32 100, i32* %10, align 4
  store i32 0, i32* %11, align 4
  %19 = getelementptr inbounds [300 x i8], [300 x i8]* %2, i64 0, i64 0
  %20 = call i32 (i8*, ...) bitcast (i32 (...)* @gets to i32 (i8*, ...)*)(i8* %19)
  %21 = getelementptr inbounds [300 x i8], [300 x i8]* %2, i64 0, i64 0
  %22 = call i64 @strlen(i8* %21) #4
  %23 = trunc i64 %22 to i32
  store i32 %23, i32* %6, align 4
  store i32 0, i32* %4, align 4
  br label %24

24:                                               ; preds = %45, %0
  %25 = load i32, i32* %4, align 4
  %26 = load i32, i32* %6, align 4
  %27 = icmp slt i32 %25, %26
  br i1 %27, label %28, label %48

28:                                               ; preds = %24
  %29 = load i8*, i8** %3, align 8
  %30 = load i32, i32* %4, align 4
  %31 = sext i32 %30 to i64
  %32 = getelementptr inbounds i8, i8* %29, i64 %31
  %33 = load i8, i8* %32, align 1
  %34 = sext i8 %33 to i32
  %35 = icmp eq i32 %34, 32
  br i1 %35, label %36, label %44

36:                                               ; preds = %28
  %37 = load i32, i32* %11, align 4
  %38 = add nsw i32 %37, 1
  store i32 %38, i32* %11, align 4
  %39 = load i32, i32* %4, align 4
  %40 = getelementptr inbounds [50 x i32], [50 x i32]* %7, i64 0, i64 0
  %41 = load i32, i32* %11, align 4
  %42 = sext i32 %41 to i64
  %43 = getelementptr inbounds i32, i32* %40, i64 %42
  store i32 %39, i32* %43, align 4
  br label %44

44:                                               ; preds = %36, %28
  br label %45

45:                                               ; preds = %44
  %46 = load i32, i32* %4, align 4
  %47 = add nsw i32 %46, 1
  store i32 %47, i32* %4, align 4
  br label %24

48:                                               ; preds = %24
  %49 = load i32, i32* %6, align 4
  %50 = getelementptr inbounds [50 x i32], [50 x i32]* %7, i64 0, i64 0
  %51 = load i32, i32* %11, align 4
  %52 = sext i32 %51 to i64
  %53 = getelementptr inbounds i32, i32* %50, i64 %52
  %54 = getelementptr inbounds i32, i32* %53, i64 1
  store i32 %49, i32* %54, align 4
  store i32 0, i32* %5, align 4
  br label %55

55:                                               ; preds = %77, %48
  %56 = load i32, i32* %5, align 4
  %57 = load i32, i32* %11, align 4
  %58 = add nsw i32 %57, 1
  %59 = icmp sle i32 %56, %58
  br i1 %59, label %60, label %80

60:                                               ; preds = %55
  %61 = getelementptr inbounds [50 x i32], [50 x i32]* %7, i64 0, i64 0
  %62 = load i32, i32* %5, align 4
  %63 = sext i32 %62 to i64
  %64 = getelementptr inbounds i32, i32* %61, i64 %63
  %65 = getelementptr inbounds i32, i32* %64, i64 1
  %66 = load i32, i32* %65, align 4
  %67 = getelementptr inbounds [50 x i32], [50 x i32]* %7, i64 0, i64 0
  %68 = load i32, i32* %5, align 4
  %69 = sext i32 %68 to i64
  %70 = getelementptr inbounds i32, i32* %67, i64 %69
  %71 = load i32, i32* %70, align 4
  %72 = sub nsw i32 %66, %71
  %73 = getelementptr inbounds [50 x i32], [50 x i32]* %8, i64 0, i64 0
  %74 = load i32, i32* %5, align 4
  %75 = sext i32 %74 to i64
  %76 = getelementptr inbounds i32, i32* %73, i64 %75
  store i32 %72, i32* %76, align 4
  br label %77

77:                                               ; preds = %60
  %78 = load i32, i32* %5, align 4
  %79 = add nsw i32 %78, 1
  store i32 %79, i32* %5, align 4
  br label %55

80:                                               ; preds = %55
  store i32 0, i32* %5, align 4
  br label %81

81:                                               ; preds = %117, %80
  %82 = load i32, i32* %5, align 4
  %83 = load i32, i32* %11, align 4
  %84 = add nsw i32 %83, 1
  %85 = icmp slt i32 %82, %84
  br i1 %85, label %86, label %120

86:                                               ; preds = %81
  %87 = load i32, i32* %9, align 4
  %88 = getelementptr inbounds [50 x i32], [50 x i32]* %8, i64 0, i64 0
  %89 = load i32, i32* %5, align 4
  %90 = sext i32 %89 to i64
  %91 = getelementptr inbounds i32, i32* %88, i64 %90
  %92 = load i32, i32* %91, align 4
  %93 = icmp slt i32 %87, %92
  br i1 %93, label %94, label %101

94:                                               ; preds = %86
  %95 = getelementptr inbounds [50 x i32], [50 x i32]* %8, i64 0, i64 0
  %96 = load i32, i32* %5, align 4
  %97 = sext i32 %96 to i64
  %98 = getelementptr inbounds i32, i32* %95, i64 %97
  %99 = load i32, i32* %98, align 4
  store i32 %99, i32* %9, align 4
  %100 = load i32, i32* %5, align 4
  store i32 %100, i32* %12, align 4
  br label %101

101:                                              ; preds = %94, %86
  %102 = load i32, i32* %10, align 4
  %103 = getelementptr inbounds [50 x i32], [50 x i32]* %8, i64 0, i64 0
  %104 = load i32, i32* %5, align 4
  %105 = sext i32 %104 to i64
  %106 = getelementptr inbounds i32, i32* %103, i64 %105
  %107 = load i32, i32* %106, align 4
  %108 = icmp sgt i32 %102, %107
  br i1 %108, label %109, label %116

109:                                              ; preds = %101
  %110 = getelementptr inbounds [50 x i32], [50 x i32]* %8, i64 0, i64 0
  %111 = load i32, i32* %5, align 4
  %112 = sext i32 %111 to i64
  %113 = getelementptr inbounds i32, i32* %110, i64 %112
  %114 = load i32, i32* %113, align 4
  store i32 %114, i32* %10, align 4
  %115 = load i32, i32* %5, align 4
  store i32 %115, i32* %13, align 4
  br label %116

116:                                              ; preds = %109, %101
  br label %117

117:                                              ; preds = %116
  %118 = load i32, i32* %5, align 4
  %119 = add nsw i32 %118, 1
  store i32 %119, i32* %5, align 4
  br label %81

120:                                              ; preds = %81
  %121 = getelementptr inbounds [50 x i32], [50 x i32]* %7, i64 0, i64 0
  %122 = load i32, i32* %12, align 4
  %123 = sext i32 %122 to i64
  %124 = getelementptr inbounds i32, i32* %121, i64 %123
  %125 = load i32, i32* %124, align 4
  %126 = add nsw i32 %125, 1
  store i32 %126, i32* %4, align 4
  br label %127

127:                                              ; preds = %144, %120
  %128 = load i32, i32* %4, align 4
  %129 = getelementptr inbounds [50 x i32], [50 x i32]* %7, i64 0, i64 0
  %130 = load i32, i32* %12, align 4
  %131 = sext i32 %130 to i64
  %132 = getelementptr inbounds i32, i32* %129, i64 %131
  %133 = getelementptr inbounds i32, i32* %132, i64 1
  %134 = load i32, i32* %133, align 4
  %135 = icmp slt i32 %128, %134
  br i1 %135, label %136, label %147

136:                                              ; preds = %127
  %137 = load i8*, i8** %3, align 8
  %138 = load i32, i32* %4, align 4
  %139 = sext i32 %138 to i64
  %140 = getelementptr inbounds i8, i8* %137, i64 %139
  %141 = load i8, i8* %140, align 1
  %142 = sext i8 %141 to i32
  %143 = call i32 (i8*, ...) @printf(i8* getelementptr inbounds ([3 x i8], [3 x i8]* @.str, i64 0, i64 0), i32 %142)
  br label %144

144:                                              ; preds = %136
  %145 = load i32, i32* %4, align 4
  %146 = add nsw i32 %145, 1
  store i32 %146, i32* %4, align 4
  br label %127

147:                                              ; preds = %127
  %148 = call i32 (i8*, ...) @printf(i8* getelementptr inbounds ([2 x i8], [2 x i8]* @.str.1, i64 0, i64 0))
  %149 = getelementptr inbounds [50 x i32], [50 x i32]* %7, i64 0, i64 0
  %150 = load i32, i32* %13, align 4
  %151 = sext i32 %150 to i64
  %152 = getelementptr inbounds i32, i32* %149, i64 %151
  %153 = load i32, i32* %152, align 4
  %154 = add nsw i32 %153, 1
  store i32 %154, i32* %4, align 4
  br label %155

155:                                              ; preds = %172, %147
  %156 = load i32, i32* %4, align 4
  %157 = getelementptr inbounds [50 x i32], [50 x i32]* %7, i64 0, i64 0
  %158 = load i32, i32* %13, align 4
  %159 = sext i32 %158 to i64
  %160 = getelementptr inbounds i32, i32* %157, i64 %159
  %161 = getelementptr inbounds i32, i32* %160, i64 1
  %162 = load i32, i32* %161, align 4
  %163 = icmp slt i32 %156, %162
  br i1 %163, label %164, label %175

164:                                              ; preds = %155
  %165 = load i8*, i8** %3, align 8
  %166 = load i32, i32* %4, align 4
  %167 = sext i32 %166 to i64
  %168 = getelementptr inbounds i8, i8* %165, i64 %167
  %169 = load i8, i8* %168, align 1
  %170 = sext i8 %169 to i32
  %171 = call i32 (i8*, ...) @printf(i8* getelementptr inbounds ([3 x i8], [3 x i8]* @.str, i64 0, i64 0), i32 %170)
  br label %172

172:                                              ; preds = %164
  %173 = load i32, i32* %4, align 4
  %174 = add nsw i32 %173, 1
  store i32 %174, i32* %4, align 4
  br label %155

175:                                              ; preds = %155
  ret i32 0
}

; Function Attrs: argmemonly nounwind willreturn
declare void @llvm.memset.p0i8.i64(i8* nocapture writeonly, i8, i64, i1 immarg) #1

declare dso_local i32 @gets(...) #2

; Function Attrs: nounwind readonly
declare dso_local i64 @strlen(i8*) #3

declare dso_local i32 @printf(i8*, ...) #2


!llvm.module.flags = !{!0}
!llvm.ident = !{!1}

!0 = !{i32 1, !"wchar_size", i32 4}
!1 = !{!"clang version 10.0.0-4ubuntu1 "}
